(lp0
(dp1
Vdomain
p2
V.echo360.org.uk
p3
sVname
p4
V_gat
p5
sVvalue
p6
V1
p7
sVexpiry
p8
I1579362986
sVpath
p9
V/
p10
sVhttpOnly
p11
I00
sVsecure
p12
I00
sa(dp13
Vdomain
p14
V.echo360.org.uk
p15
sVname
p16
VCloudFront-Tracking2
p17
sVvalue
p18
VMTU3OTM2NjUyODI2MeKQn+KQn+KQn+KQnzc1ZjE2OTZhLTA2OGItNGNlNy04M2MwLWIwMzQ1NWMwZmEzNuKQn+KQn+KQn+KQny5lY2hvMzYwLm9yZy51a+KQn+KQny8
p19
sVpath
p20
g10
sVhttpOnly
p21
I01
sVsecure
p22
I01
sa(dp23
Vdomain
p24
Vecho360.org.uk
p25
sVname
p26
VPLAY_SESSION
p27
sVvalue
p28
V206c739f5ed6b1fe72180763872fd07eff279d06-role=Student&institution=75f1696a-068b-4ce7-83c0-b03455c0fa36&roles=Student&csrfToken=deeedfba67a082abfcdaaf34b0c62568484ce338-1579362928198-e137ee6ce65e5b97996a98e0&user=175fd4dd-fd02-436e-b2b8-79f4128e4489
p29
sVpath
p30
g10
sVhttpOnly
p31
I01
sVsecure
p32
I01
sa(dp33
Vdomain
p34
V.echo360.org.uk
p35
sVname
p36
VCloudFront-Key-Pair-Id
p37
sVvalue
p38
VAPKAIPMYRDQXV3PXG2XA
p39
sVpath
p40
g10
sVhttpOnly
p41
I01
sVsecure
p42
I01
sa(dp43
Vdomain
p44
V.echo360.org.uk
p45
sVname
p46
VCloudFront-Policy
p47
sVvalue
p48
VeyJTdGF0ZW1lbnQiOiBbeyJSZXNvdXJjZSI6Imh0dHBzOi8vKi5lY2hvMzYwLm9yZy51ay8qNzVmMTY5NmEtMDY4Yi00Y2U3LTgzYzAtYjAzNDU1YzBmYTM2LyoiLCJDb25kaXRpb24iOnsiRGF0ZUxlc3NUaGFuIjp7IkFXUzpFcG9jaFRpbWUiOjE1NzkzNzAxMjh9fX1dfQ__
p49
sVpath
p50
g10
sVhttpOnly
p51
I01
sVsecure
p52
I01
sa(dp53
Vdomain
p54
V.echo360.org.uk
p55
sVname
p56
VCloudFront-Signature
p57
sVvalue
p58
VO3CUW6UhoCaR7iOVcs8r6U7Uc1tutCQaVnORSd1n5-uFG2i8XuumaSycyhnOdShnbXFEuHwwc~lrkDCxHHRXWB21~9kaUB3KTpjK7rMYf1AO5GgyBglZsI-z3ZAKz5ExHZiBupkujK2YD0DWnl~WvmTYdv76R9DYlW4W-7V4f5egGg5N2WwuXf0VbH6j5le0Yv4ySnVp2A7C39bWjjEJSgkShrmPLJcKpc9-GHcESc6~KKq1kBN1zp7-~r-vEWCC7errRVfh2aNDy33IcdPgNFLC3pFnU-OhzFcMt~otLzcEE18pBEJ~OlmIQwqHsQReZEUjk5DRJp-etWs~F8XlCw__
p59
sVpath
p60
g10
sVhttpOnly
p61
I01
sVsecure
p62
I01
sa(dp63
Vdomain
p64
Vecho360.org.uk
p65
sVname
p66
V
p67
sVvalue
p68
V501
p69
sVpath
p70
g10
sVhttpOnly
p71
I00
sVsecure
p72
I00
sa(dp73
Vdomain
p74
V.echo360.org.uk
p75
sVname
p76
V_ga
p77
sVvalue
p78
VGA1.3.712011183.1579362927
p79
sVexpiry
p80
I1642434929
sVpath
p81
g10
sVhttpOnly
p82
I00
sVsecure
p83
I00
sa(dp84
Vdomain
p85
V.echo360.org.uk
p86
sVname
p87
V_gid
p88
sVvalue
p89
VGA1.3.249353239.1579362927
p90
sVexpiry
p91
I1579449329
sVpath
p92
g10
sVhttpOnly
p93
I00
sVsecure
p94
I00
sa.